target datalayout = "e-m:e-p270:32:32-p271:32:32-p272:64:64-i64:64-i128:128-f80:128-n8:16:32:64-S128"
target triple = "x86_64-pc-linux-gnu"

%struct.OpusRangeCoder = type { %struct.GetBitContext, %struct.RawBitsContext, i32, i32, i32, [1287 x i8], ptr, i32, i32, i32 }
%struct.GetBitContext = type { ptr, ptr, i32, i32, i32 }
%struct.RawBitsContext = type { ptr, i32, i32, i32 }

; Function Attrs: alwaysinline nounwind willreturn memory(none) uwtable
define internal i32 @av_bswap32(i32 noundef %0) #3 {
  %2 = alloca i32, align 4
  store i32 %0, ptr %2, align 4, !tbaa !13
  %3 = load i32, ptr %2, align 4, !tbaa !13
  %4 = shl i32 %3, 8
  %5 = and i32 %4, 65280
  %6 = load i32, ptr %2, align 4, !tbaa !13
  %7 = lshr i32 %6, 8
  %8 = and i32 %7, 255
  %9 = or i32 %5, %8
  %10 = shl i32 %9, 16
  %11 = load i32, ptr %2, align 4, !tbaa !13
  %12 = lshr i32 %11, 16
  %13 = shl i32 %12, 8
  %14 = and i32 %13, 65280
  %15 = load i32, ptr %2, align 4, !tbaa !13
  %16 = lshr i32 %15, 16
  %17 = lshr i32 %16, 8
  %18 = and i32 %17, 255
  %19 = or i32 %14, %18
  %20 = or i32 %10, %19
  ret i32 %20
}

; Function Attrs: inlinehint nounwind uwtable
define internal i32 @get_bits(ptr noundef %0, i32 noundef %1) #7 {
  %3 = alloca ptr, align 8
  %4 = alloca i32, align 4
  %5 = alloca i32, align 4
  %6 = alloca i32, align 4
  %7 = alloca i32, align 4
  %8 = alloca i32, align 4
  store ptr %0, ptr %3, align 8, !tbaa !37
  store i32 %1, ptr %4, align 4, !tbaa !13
  call void @llvm.lifetime.start.p0(i64 4, ptr %5) #9
  call void @llvm.lifetime.start.p0(i64 4, ptr %6) #9
  %9 = load ptr, ptr %3, align 8, !tbaa !37
  %10 = getelementptr inbounds nuw %struct.GetBitContext, ptr %9, i32 0, i32 2
  %11 = load i32, ptr %10, align 8, !tbaa !39
  store i32 %11, ptr %6, align 4, !tbaa !13
  call void @llvm.lifetime.start.p0(i64 4, ptr %7) #9
  call void @llvm.lifetime.start.p0(i64 4, ptr %8) #9
  %12 = load ptr, ptr %3, align 8, !tbaa !37
  %13 = getelementptr inbounds nuw %struct.GetBitContext, ptr %12, i32 0, i32 4
  %14 = load i32, ptr %13, align 8, !tbaa !40
  store i32 %14, ptr %8, align 4, !tbaa !13
  %15 = load ptr, ptr %3, align 8, !tbaa !37
  %16 = getelementptr inbounds nuw %struct.GetBitContext, ptr %15, i32 0, i32 0
  %17 = load ptr, ptr %16, align 8, !tbaa !41
  %18 = load i32, ptr %6, align 4, !tbaa !13
  %19 = lshr i32 %18, 3
  %20 = zext i32 %19 to i64
  %21 = getelementptr inbounds nuw i8, ptr %17, i64 %20
  %22 = load i32, ptr %21, align 1, !tbaa !28
  %23 = call i32 @av_bswap32(i32 noundef %22) #10
  %24 = load i32, ptr %6, align 4, !tbaa !13
  %25 = and i32 %24, 7
  %26 = shl i32 %23, %25
  %27 = lshr i32 %26, 0
  store i32 %27, ptr %7, align 4, !tbaa !13
  %28 = load i32, ptr %7, align 4, !tbaa !13
  %29 = load i32, ptr %4, align 4, !tbaa !13
  %30 = sub nsw i32 32, %29
  %31 = lshr i32 %28, %30
  store i32 %31, ptr %5, align 4, !tbaa !13
  %32 = load i32, ptr %8, align 4, !tbaa !13
  %33 = load i32, ptr %6, align 4, !tbaa !13
  %34 = load i32, ptr %4, align 4, !tbaa !13
  %35 = add i32 %33, %34
  %36 = icmp ugt i32 %32, %35
  br i1 %36, label %37, label %41

37:                                               ; preds = %2
  %38 = load i32, ptr %6, align 4, !tbaa !13
  %39 = load i32, ptr %4, align 4, !tbaa !13
  %40 = add i32 %38, %39
  br label %43

41:                                               ; preds = %2
  %42 = load i32, ptr %8, align 4, !tbaa !13
  br label %43

43:                                               ; preds = %41, %37
  %44 = phi i32 [ %40, %37 ], [ %42, %41 ]
  store i32 %44, ptr %6, align 4, !tbaa !13
  %45 = load i32, ptr %6, align 4, !tbaa !13
  %46 = load ptr, ptr %3, align 8, !tbaa !37
  %47 = getelementptr inbounds nuw %struct.GetBitContext, ptr %46, i32 0, i32 2
  store i32 %45, ptr %47, align 8, !tbaa !39
  %48 = load i32, ptr %5, align 4, !tbaa !13
  call void @llvm.lifetime.end.p0(i64 4, ptr %8) #9
  call void @llvm.lifetime.end.p0(i64 4, ptr %7) #9
  call void @llvm.lifetime.end.p0(i64 4, ptr %6) #9
  call void @llvm.lifetime.end.p0(i64 4, ptr %5) #9
  ret i32 %48
}

; Function Attrs: alwaysinline nounwind uwtable
define internal void @opus_rc_dec_normalize(ptr noundef %0) #2 {
  %2 = alloca ptr, align 8
  store ptr %0, ptr %2, align 8, !tbaa !4
  br label %3

3:                                                ; preds = %8, %1
  %4 = load ptr, ptr %2, align 8, !tbaa !4
  %5 = getelementptr inbounds nuw %struct.OpusRangeCoder, ptr %4, i32 0, i32 2
  %6 = load i32, ptr %5, align 8, !tbaa !15
  %7 = icmp ule i32 %6, 8388608
  br i1 %7, label %8, label %29

8:                                                ; preds = %3
  %9 = load ptr, ptr %2, align 8, !tbaa !4
  %10 = getelementptr inbounds nuw %struct.OpusRangeCoder, ptr %9, i32 0, i32 3
  %11 = load i32, ptr %10, align 4, !tbaa !20
  %12 = shl i32 %11, 8
  %13 = load ptr, ptr %2, align 8, !tbaa !4
  %14 = getelementptr inbounds nuw %struct.OpusRangeCoder, ptr %13, i32 0, i32 0
  %15 = call i32 @get_bits(ptr noundef %14, i32 noundef 8)
  %16 = xor i32 %15, 255
  %17 = or i32 %12, %16
  %18 = and i32 %17, 2147483647
  %19 = load ptr, ptr %2, align 8, !tbaa !4
  %20 = getelementptr inbounds nuw %struct.OpusRangeCoder, ptr %19, i32 0, i32 3
  store i32 %18, ptr %20, align 4, !tbaa !20
  %21 = load ptr, ptr %2, align 8, !tbaa !4
  %22 = getelementptr inbounds nuw %struct.OpusRangeCoder, ptr %21, i32 0, i32 2
  %23 = load i32, ptr %22, align 8, !tbaa !15
  %24 = shl i32 %23, 8
  store i32 %24, ptr %22, align 8, !tbaa !15
  %25 = load ptr, ptr %2, align 8, !tbaa !4
  %26 = getelementptr inbounds nuw %struct.OpusRangeCoder, ptr %25, i32 0, i32 4
  %27 = load i32, ptr %26, align 8, !tbaa !23
  %28 = add i32 %27, 8
  store i32 %28, ptr %26, align 8, !tbaa !23
  br label %3, !llvm.loop !24

29:                                               ; preds = %3
  ret void
}

; Function Attrs: alwaysinline nounwind uwtable
define internal void @opus_rc_dec_update(ptr noundef %0, i32 noundef %1, i32 noundef %2, i32 noundef %3, i32 noundef %4) #2 {
  %6 = alloca ptr, align 8
  %7 = alloca i32, align 4
  %8 = alloca i32, align 4
  %9 = alloca i32, align 4
  %10 = alloca i32, align 4
  store ptr %0, ptr %6, align 8, !tbaa !4
  store i32 %1, ptr %7, align 4, !tbaa !13
  store i32 %2, ptr %8, align 4, !tbaa !13
  store i32 %3, ptr %9, align 4, !tbaa !13
  store i32 %4, ptr %10, align 4, !tbaa !13
  %11 = load i32, ptr %7, align 4, !tbaa !13
  %12 = load i32, ptr %10, align 4, !tbaa !13
  %13 = load i32, ptr %9, align 4, !tbaa !13
  %14 = sub i32 %12, %13
  %15 = mul i32 %11, %14
  %16 = load ptr, ptr %6, align 8, !tbaa !4
  %17 = getelementptr inbounds nuw %struct.OpusRangeCoder, ptr %16, i32 0, i32 3
  %18 = load i32, ptr %17, align 4, !tbaa !20
  %19 = sub i32 %18, %15
  store i32 %19, ptr %17, align 4, !tbaa !20
  %20 = load i32, ptr %8, align 4, !tbaa !13
  %21 = icmp ne i32 %20, 0
  br i1 %21, label %22, label %28

22:                                               ; preds = %5
  %23 = load i32, ptr %7, align 4, !tbaa !13
  %24 = load i32, ptr %9, align 4, !tbaa !13
  %25 = load i32, ptr %8, align 4, !tbaa !13
  %26 = sub i32 %24, %25
  %27 = mul i32 %23, %26
  br label %38

28:                                               ; preds = %5
  %29 = load ptr, ptr %6, align 8, !tbaa !4
  %30 = getelementptr inbounds nuw %struct.OpusRangeCoder, ptr %29, i32 0, i32 2
  %31 = load i32, ptr %30, align 8, !tbaa !15
  %32 = load i32, ptr %7, align 4, !tbaa !13
  %33 = load i32, ptr %10, align 4, !tbaa !13
  %34 = load i32, ptr %9, align 4, !tbaa !13
  %35 = sub i32 %33, %34
  %36 = mul i32 %32, %35
  %37 = sub i32 %31, %36
  br label %38

38:                                               ; preds = %28, %22
  %39 = phi i32 [ %27, %22 ], [ %37, %28 ]
  %40 = load ptr, ptr %6, align 8, !tbaa !4
  %41 = getelementptr inbounds nuw %struct.OpusRangeCoder, ptr %40, i32 0, i32 2
  store i32 %39, ptr %41, align 8, !tbaa !15
  %42 = load ptr, ptr %6, align 8, !tbaa !4
  call void @opus_rc_dec_normalize(ptr noundef %42)
  ret void
}

; Function Attrs: nounwind uwtable
define i32 @ff_opus_rc_dec_uint_step(ptr noundef %0, i32 noundef %1) #0 {
  %3 = alloca ptr, align 8
  %4 = alloca i32, align 4
  %5 = alloca i32, align 4
  %6 = alloca i32, align 4
  %7 = alloca i32, align 4
  %8 = alloca i32, align 4
  store ptr %0, ptr %3, align 8, !tbaa !4
  store i32 %1, ptr %4, align 4, !tbaa !13
  call void @llvm.lifetime.start.p0(i64 4, ptr %5) #9
  call void @llvm.lifetime.start.p0(i64 4, ptr %6) #9
  call void @llvm.lifetime.start.p0(i64 4, ptr %7) #9
  call void @llvm.lifetime.start.p0(i64 4, ptr %8) #9
  %9 = load i32, ptr %4, align 4, !tbaa !13
  %10 = add nsw i32 %9, 1
  %11 = mul nsw i32 %10, 3
  %12 = load i32, ptr %4, align 4, !tbaa !13
  %13 = add nsw i32 %11, %12
  store i32 %13, ptr %8, align 4, !tbaa !13
  %14 = load ptr, ptr %3, align 8, !tbaa !4
  %15 = getelementptr inbounds nuw %struct.OpusRangeCoder, ptr %14, i32 0, i32 2
  %16 = load i32, ptr %15, align 8, !tbaa !15
  %17 = load i32, ptr %8, align 4, !tbaa !13
  %18 = udiv i32 %16, %17
  store i32 %18, ptr %6, align 4, !tbaa !13
  %19 = load ptr, ptr %3, align 8, !tbaa !4
  %20 = getelementptr inbounds nuw %struct.OpusRangeCoder, ptr %19, i32 0, i32 3
  %21 = load i32, ptr %20, align 4, !tbaa !20
  %22 = load i32, ptr %6, align 4, !tbaa !13
  %23 = udiv i32 %21, %22
  %24 = add i32 %23, 1
  store i32 %24, ptr %7, align 4, !tbaa !13
  %25 = load i32, ptr %8, align 4, !tbaa !13
  %26 = load i32, ptr %7, align 4, !tbaa !13
  %27 = load i32, ptr %8, align 4, !tbaa !13
  %28 = icmp ugt i32 %26, %27
  br i1 %28, label %29, label %31

29:                                               ; preds = %2
  %30 = load i32, ptr %8, align 4, !tbaa !13
  br label %33

31:                                               ; preds = %2
  %32 = load i32, ptr %7, align 4, !tbaa !13
  br label %33

33:                                               ; preds = %31, %29
  %34 = phi i32 [ %30, %29 ], [ %32, %31 ]
  %35 = sub i32 %25, %34
  store i32 %35, ptr %7, align 4, !tbaa !13
  %36 = load i32, ptr %7, align 4, !tbaa !13
  %37 = load i32, ptr %4, align 4, !tbaa !13
  %38 = add nsw i32 %37, 1
  %39 = mul nsw i32 %38, 3
  %40 = icmp ult i32 %36, %39
  br i1 %40, label %41, label %44

41:                                               ; preds = %33
  %42 = load i32, ptr %7, align 4, !tbaa !13
  %43 = udiv i32 %42, 3
  br label %50

44:                                               ; preds = %33
  %45 = load i32, ptr %7, align 4, !tbaa !13
  %46 = load i32, ptr %4, align 4, !tbaa !13
  %47 = add nsw i32 %46, 1
  %48 = mul nsw i32 %47, 2
  %49 = sub i32 %45, %48
  br label %50

50:                                               ; preds = %44, %41
  %51 = phi i32 [ %43, %41 ], [ %49, %44 ]
  store i32 %51, ptr %5, align 4, !tbaa !13
  %52 = load ptr, ptr %3, align 8, !tbaa !4
  %53 = load i32, ptr %6, align 4, !tbaa !13
  %54 = load i32, ptr %5, align 4, !tbaa !13
  %55 = load i32, ptr %4, align 4, !tbaa !13
  %56 = icmp ule i32 %54, %55
  br i1 %56, label %57, label %61

57:                                               ; preds = %50
  %58 = load i32, ptr %5, align 4, !tbaa !13
  %59 = add i32 %58, 0
  %60 = mul i32 3, %59
  br label %70

61:                                               ; preds = %50
  %62 = load i32, ptr %5, align 4, !tbaa !13
  %63 = sub i32 %62, 1
  %64 = load i32, ptr %4, align 4, !tbaa !13
  %65 = sub i32 %63, %64
  %66 = load i32, ptr %4, align 4, !tbaa !13
  %67 = add nsw i32 %66, 1
  %68 = mul nsw i32 3, %67
  %69 = add i32 %65, %68
  br label %70

70:                                               ; preds = %61, %57
  %71 = phi i32 [ %60, %57 ], [ %69, %61 ]
  %72 = load i32, ptr %5, align 4, !tbaa !13
  %73 = load i32, ptr %4, align 4, !tbaa !13
  %74 = icmp ule i32 %72, %73
  br i1 %74, label %75, label %79

75:                                               ; preds = %70
  %76 = load i32, ptr %5, align 4, !tbaa !13
  %77 = add i32 %76, 1
  %78 = mul i32 3, %77
  br label %88

79:                                               ; preds = %70
  %80 = load i32, ptr %5, align 4, !tbaa !13
  %81 = sub i32 %80, 0
  %82 = load i32, ptr %4, align 4, !tbaa !13
  %83 = sub i32 %81, %82
  %84 = load i32, ptr %4, align 4, !tbaa !13
  %85 = add nsw i32 %84, 1
  %86 = mul nsw i32 3, %85
  %87 = add i32 %83, %86
  br label %88

88:                                               ; preds = %79, %75
  %89 = phi i32 [ %78, %75 ], [ %87, %79 ]
  %90 = load i32, ptr %8, align 4, !tbaa !13
  call void @opus_rc_dec_update(ptr noundef %52, i32 noundef %53, i32 noundef %71, i32 noundef %89, i32 noundef %90)
  %91 = load i32, ptr %5, align 4, !tbaa !13
  call void @llvm.lifetime.end.p0(i64 4, ptr %8) #9
  call void @llvm.lifetime.end.p0(i64 4, ptr %7) #9
  call void @llvm.lifetime.end.p0(i64 4, ptr %6) #9
  call void @llvm.lifetime.end.p0(i64 4, ptr %5) #9
  ret i32 %91
}