; Function Attrs: nofree norecurse nosync nounwind memory(read, argmem: readwrite, inaccessiblemem: none) uwtable
define i32 @ff_opus_rc_dec_uint_step(ptr noundef captures(none) %0, i32 noundef %1) local_unnamed_addr #0 {
  %3 = add nsw i32 %1, 1
  %4 = mul nsw i32 %3, 3
  %5 = add nsw i32 %4, %1
  %6 = getelementptr inbounds nuw i8, ptr %0, i64 56
  %7 = load i32, ptr %6, align 8, !tbaa !8
  %8 = udiv i32 %7, %5
  %9 = getelementptr inbounds nuw i8, ptr %0, i64 60
  %10 = load i32, ptr %9, align 4, !tbaa !15
  %11 = udiv i32 %10, %8
  %12 = add i32 %11, 1
  %13 = tail call i32 @llvm.usub.sat.i32(i32 %5, i32 %12)
  %14 = icmp ult i32 %13, %4
  br i1 %14, label %15, label %17

15:                                               ; preds = %2
  %16 = udiv i32 %13, 3
  br label %opus_rc_dec_update.exit

17:                                               ; preds = %2
  %18 = shl nsw i32 %3, 1
  %19 = sub i32 %13, %18
  br label %opus_rc_dec_update.exit

opus_rc_dec_update.exit:                          ; preds = %17, %15
  %20 = phi i32 [ %16, %15 ], [ %19, %17 ]
  %.not = icmp ugt i32 %20, %1
  %21 = mul i32 %20, 3
  %22 = xor i32 %1, -1
  %23 = add i32 %4, %22
  %24 = add i32 %23, %20
  %25 = select i1 %.not, i32 %24, i32 %21
  %26 = add i32 %21, 3
  %27 = sub i32 %4, %1
  %28 = add i32 %27, %20
  %29 = select i1 %.not, i32 %28, i32 %26
  %30 = sub i32 %5, %29
  %31 = mul i32 %30, %8
  %32 = sub i32 %10, %31
  store i32 %32, ptr %9, align 4, !tbaa !15
  %.not.i = icmp eq i32 %25, 0
  %33 = sub i32 %29, %25
  %34 = mul i32 %33, %8
  %35 = sub i32 %7, %31
  %36 = select i1 %.not.i, i32 %35, i32 %34
  store i32 %36, ptr %6, align 8, !tbaa !8
  %37 = icmp ult i32 %36, 8388609
  br i1 %37, label %.lr.ph, label %opus_rc_dec_normalize.exit

.lr.ph:                                           ; preds = %opus_rc_dec_update.exit
  %38 = getelementptr inbounds nuw i8, ptr %0, i64 16
  %39 = getelementptr inbounds nuw i8, ptr %0, i64 24
  %40 = load i32, ptr %39, align 8, !tbaa !18
  %41 = load ptr, ptr %0, align 8, !tbaa !19
  %42 = getelementptr inbounds nuw i8, ptr %0, i64 64
  %.promoted35 = load i32, ptr %38, align 8, !tbaa !20
  %.promoted36 = load i32, ptr %42, align 8, !tbaa !21
  br label %43

43:                                               ; preds = %.lr.ph, %43
  %44 = phi i32 [ %.promoted36, %.lr.ph ], [ %62, %43 ]
  %45 = phi i32 [ %.promoted35, %.lr.ph ], [ %58, %43 ]
  %46 = phi i32 [ %32, %.lr.ph ], [ %60, %43 ]
  %47 = phi i32 [ %36, %.lr.ph ], [ %61, %43 ]
  %48 = shl i32 %46, 8
  %49 = lshr i32 %45, 3
  %50 = zext nneg i32 %49 to i64
  %51 = getelementptr inbounds nuw i8, ptr %41, i64 %50
  %52 = load i32, ptr %51, align 1, !tbaa !22
  %53 = tail call i32 @llvm.bswap.i32(i32 %52)
  %54 = and i32 %45, 7
  %55 = shl i32 %53, %54
  %56 = lshr i32 %55, 24
  %57 = add i32 %45, 8
  %58 = tail call i32 @llvm.umin.i32(i32 %40, i32 %57)
  store i32 %58, ptr %38, align 8, !tbaa !20
  %.masked.i = and i32 %48, 2147483392
  %59 = or disjoint i32 %56, %.masked.i
  %60 = xor i32 %59, 255
  store i32 %60, ptr %9, align 4, !tbaa !15
  %61 = shl nuw i32 %47, 8
  store i32 %61, ptr %6, align 8, !tbaa !8
  %62 = add i32 %44, 8
  store i32 %62, ptr %42, align 8, !tbaa !21
  %63 = icmp ult i32 %47, 32769
  br i1 %63, label %43, label %opus_rc_dec_normalize.exit, !llvm.loop !23

opus_rc_dec_normalize.exit:                       ; preds = %43, %opus_rc_dec_update.exit
  ret i32 %20
}